; Function Attrs: mustprogress uwtable
define noundef i64 @_ZNK7rocksdb14StatisticsImpl14getTickerCountEj(ptr noundef nonnull align 8 dereferenceable(112) %this, i32 noundef %tickerType) unnamed_addr #0 align 2 personality ptr @__gxx_personality_v0 {
entry:
  %aggregate_lock_ = getelementptr inbounds i8, ptr %this, i64 56
  tail call void @_ZN7rocksdb4port5Mutex4LockEv(ptr noundef nonnull align 8 dereferenceable(40) %aggregate_lock_)
  %size_shift_.i.i = getelementptr inbounds i8, ptr %this, i64 104
  %per_core_stats_.i = getelementptr inbounds i8, ptr %this, i64 96
  %idxprom.i = zext i32 %tickerType to i64
  br label %for.body.i

for.body.i:                                       ; preds = %for.body.i, %entry
  %core_idx.06.i = phi i64 [ 0, %entry ], [ %inc.i, %for.body.i ]
  %res.05.i = phi i64 [ 0, %entry ], [ %add.i, %for.body.i ]
  %0 = load ptr, ptr %per_core_stats_.i, align 8
  %arrayidx.i.i.i = getelementptr inbounds %"struct.rocksdb::StatisticsImpl::StatisticsData", ptr %0, i64 %core_idx.06.i
  %arrayidx.i = getelementptr inbounds [216 x %"struct.std::atomic.51"], ptr %arrayidx.i.i.i, i64 0, i64 %idxprom.i
  %1 = load atomic i64, ptr %arrayidx.i seq_cst, align 8
  %add.i = add i64 %1, %res.05.i
  %inc.i = add nuw i64 %core_idx.06.i, 1
  %2 = load i32, ptr %size_shift_.i.i, align 8
  %sh_prom.i.i = zext nneg i32 %2 to i64
  %core_idx.0.highbits.i = lshr i64 %inc.i, %sh_prom.i.i
  %cmp.i = icmp eq i64 %core_idx.0.highbits.i, 0
  br i1 %cmp.i, label %for.body.i, label %invoke.cont, !llvm.loop !24

invoke.cont:                                      ; preds = %for.body.i
  invoke void @_ZN7rocksdb4port5Mutex6UnlockEv(ptr noundef nonnull align 8 dereferenceable(40) %aggregate_lock_)
          to label %_ZN7rocksdb9MutexLockD2Ev.exit unwind label %terminate.lpad.i

terminate.lpad.i:                                 ; preds = %invoke.cont
  %3 = landingpad { ptr, i32 }
          catch ptr null
  %4 = extractvalue { ptr, i32 } %3, 0
  tail call void @__clang_call_terminate(ptr %4) #28
  unreachable

_ZN7rocksdb9MutexLockD2Ev.exit:                   ; preds = %invoke.cont
  ret i64 %add.i
}